target datalayout = "e-m:e-p270:32:32-p271:32:32-p272:64:64-i64:64-i128:128-f80:128-n8:16:32:64-S128"
target triple = "x86_64-pc-linux-gnu"

%struct.pcap_hdr = type { i16, i16, i32, i32, i32, i32 }
%struct.wtap_dumper = type { ptr, i32, i32, i32, i32, i8, i64, ptr, ptr, ptr, ptr, ptr, ptr, ptr, ptr, ptr, ptr, ptr, ptr, ptr, i32, i32, i32 }

; Function Attrs: null_pointer_is_valid sspstrong uwtable
define internal zeroext i1 @libpcap_dump_write_file_header(ptr noundef %0, i32 noundef %1, ptr noundef %2) #0 {
  %4 = alloca i1, align 1
  %5 = alloca ptr, align 8
  %6 = alloca i32, align 4
  %7 = alloca ptr, align 8
  %8 = alloca %struct.pcap_hdr, align 4
  %9 = alloca i32, align 4
  store ptr %0, ptr %5, align 8
  store i32 %1, ptr %6, align 4
  store ptr %2, ptr %7, align 8
  call void @llvm.lifetime.start.p0(i64 20, ptr %8) #10
  %10 = load ptr, ptr %5, align 8
  %11 = load ptr, ptr %7, align 8
  %12 = call zeroext i1 @wtap_dump_file_write(ptr noundef %10, ptr noundef %6, i64 noundef 4, ptr noundef %11)
  br i1 %12, label %14, label %13

13:                                               ; preds = %3
  store i1 false, ptr %4, align 1
  store i32 1, ptr %9, align 4
  br label %45

14:                                               ; preds = %3
  %15 = getelementptr inbounds nuw %struct.pcap_hdr, ptr %8, i32 0, i32 0
  store i16 2, ptr %15, align 4
  %16 = getelementptr inbounds nuw %struct.pcap_hdr, ptr %8, i32 0, i32 1
  store i16 4, ptr %16, align 2
  %17 = getelementptr inbounds nuw %struct.pcap_hdr, ptr %8, i32 0, i32 2
  store i32 0, ptr %17, align 4
  %18 = getelementptr inbounds nuw %struct.pcap_hdr, ptr %8, i32 0, i32 3
  store i32 0, ptr %18, align 4
  %19 = load ptr, ptr %5, align 8
  %20 = getelementptr inbounds nuw %struct.wtap_dumper, ptr %19, i32 0, i32 2
  %21 = load i32, ptr %20, align 4
  %22 = icmp ne i32 %21, 0
  br i1 %22, label %23, label %27

23:                                               ; preds = %14
  %24 = load ptr, ptr %5, align 8
  %25 = getelementptr inbounds nuw %struct.wtap_dumper, ptr %24, i32 0, i32 2
  %26 = load i32, ptr %25, align 4
  br label %32

27:                                               ; preds = %14
  %28 = load ptr, ptr %5, align 8
  %29 = getelementptr inbounds nuw %struct.wtap_dumper, ptr %28, i32 0, i32 3
  %30 = load i32, ptr %29, align 8
  %31 = call i32 @wtap_max_snaplen_for_encap(i32 noundef %30)
  br label %32

32:                                               ; preds = %27, %23
  %33 = phi i32 [ %26, %23 ], [ %31, %27 ]
  %34 = getelementptr inbounds nuw %struct.pcap_hdr, ptr %8, i32 0, i32 4
  store i32 %33, ptr %34, align 4
  %35 = load ptr, ptr %5, align 8
  %36 = getelementptr inbounds nuw %struct.wtap_dumper, ptr %35, i32 0, i32 3
  %37 = load i32, ptr %36, align 8
  %38 = call i32 @wtap_wtap_encap_to_pcap_encap(i32 noundef %37)
  %39 = getelementptr inbounds nuw %struct.pcap_hdr, ptr %8, i32 0, i32 5
  store i32 %38, ptr %39, align 4
  %40 = load ptr, ptr %5, align 8
  %41 = load ptr, ptr %7, align 8
  %42 = call zeroext i1 @wtap_dump_file_write(ptr noundef %40, ptr noundef %8, i64 noundef 20, ptr noundef %41)
  br i1 %42, label %44, label %43

43:                                               ; preds = %32
  store i1 false, ptr %4, align 1
  store i32 1, ptr %9, align 4
  br label %45

44:                                               ; preds = %32
  store i1 true, ptr %4, align 1
  store i32 1, ptr %9, align 4
  br label %45

45:                                               ; preds = %44, %43, %13
  call void @llvm.lifetime.end.p0(i64 20, ptr %8) #10
  %46 = load i1, ptr %4, align 1
  ret i1 %46
}

; Function Attrs: null_pointer_is_valid sspstrong uwtable
define internal zeroext i1 @libpcap_dump_open_pcap_ss990915(ptr noundef %0, ptr noundef %1, ptr noundef %2) #0 {
  %4 = alloca ptr, align 8
  %5 = alloca ptr, align 8
  %6 = alloca ptr, align 8
  store ptr %0, ptr %4, align 8
  store ptr %1, ptr %5, align 8
  store ptr %2, ptr %6, align 8
  %7 = load ptr, ptr %4, align 8
  %8 = getelementptr inbounds nuw %struct.wtap_dumper, ptr %7, i32 0, i32 10
  store ptr @libpcap_dump_pcap_ss990915, ptr %8, align 8
  %9 = load ptr, ptr %4, align 8
  %10 = load ptr, ptr %5, align 8
  %11 = call zeroext i1 @libpcap_dump_write_file_header(ptr noundef %9, i32 noundef -1582117580, ptr noundef %10)
  ret i1 %11
}