; Function Attrs: null_pointer_is_valid sspstrong uwtable
define internal zeroext i1 @libpcap_dump_open_pcap_ss990915(ptr noundef initializes((64, 72)) %0, ptr noundef %1, ptr readnone captures(none) %2) #0 {
  %4 = alloca i32, align 4
  %5 = alloca %struct.pcap_hdr, align 4
  %6 = getelementptr inbounds nuw i8, ptr %0, i64 64
  store ptr @libpcap_dump_pcap_ss990915, ptr %6, align 8
  call void @llvm.lifetime.start.p0(i64 4, ptr nonnull %4)
  store i32 -1582117580, ptr %4, align 4
  call void @llvm.lifetime.start.p0(i64 20, ptr nonnull %5) #7
  %7 = call zeroext i1 @wtap_dump_file_write(ptr noundef %0, ptr noundef nonnull %4, i64 noundef 4, ptr noundef %1)
  br i1 %7, label %8, label %libpcap_dump_write_file_header.exit

8:                                                ; preds = %3
  store i16 2, ptr %5, align 4
  %9 = getelementptr inbounds nuw i8, ptr %5, i64 2
  store i16 4, ptr %9, align 2
  %10 = getelementptr inbounds nuw i8, ptr %5, i64 4
  store i32 0, ptr %10, align 4
  %11 = getelementptr inbounds nuw i8, ptr %5, i64 8
  store i32 0, ptr %11, align 4
  %12 = getelementptr inbounds nuw i8, ptr %0, i64 12
  %13 = load i32, ptr %12, align 4
  %.not.i = icmp eq i32 %13, 0
  br i1 %.not.i, label %14, label %18

14:                                               ; preds = %8
  %15 = getelementptr inbounds nuw i8, ptr %0, i64 16
  %16 = load i32, ptr %15, align 8
  %17 = call i32 @wtap_max_snaplen_for_encap(i32 noundef %16)
  br label %18

18:                                               ; preds = %14, %8
  %19 = phi i32 [ %17, %14 ], [ %13, %8 ]
  %20 = getelementptr inbounds nuw i8, ptr %5, i64 12
  store i32 %19, ptr %20, align 4
  %21 = getelementptr inbounds nuw i8, ptr %0, i64 16
  %22 = load i32, ptr %21, align 8
  %23 = call i32 @wtap_wtap_encap_to_pcap_encap(i32 noundef %22)
  %24 = getelementptr inbounds nuw i8, ptr %5, i64 16
  store i32 %23, ptr %24, align 4
  %25 = call zeroext i1 @wtap_dump_file_write(ptr noundef %0, ptr noundef nonnull %5, i64 noundef 20, ptr noundef %1)
  br label %libpcap_dump_write_file_header.exit

libpcap_dump_write_file_header.exit:              ; preds = %3, %18
  %.0.i = phi i1 [ false, %3 ], [ %25, %18 ]
  call void @llvm.lifetime.end.p0(i64 20, ptr nonnull %5) #7
  call void @llvm.lifetime.end.p0(i64 4, ptr nonnull %4)
  ret i1 %.0.i
}